target datalayout = "e-m:e-p270:32:32-p271:32:32-p272:64:64-i64:64-i128:128-f80:128-n8:16:32:64-S128"
target triple = "x86_64-pc-linux-gnu"

; Function Attrs: nounwind uwtable
define hidden i32 @mbedtls_mpi_core_write_le(ptr noundef %0, i64 noundef %1, ptr noundef %2, i64 noundef %3) #0 {
  %5 = alloca i32, align 4
  %6 = alloca ptr, align 8
  %7 = alloca i64, align 8
  %8 = alloca ptr, align 8
  %9 = alloca i64, align 8
  %10 = alloca i64, align 8
  %11 = alloca i64, align 8
  %12 = alloca i64, align 8
  %13 = alloca i32, align 4
  %14 = alloca i64, align 8
  store ptr %0, ptr %6, align 8, !tbaa !7
  store i64 %1, ptr %7, align 8, !tbaa !3
  store ptr %2, ptr %8, align 8, !tbaa !22
  store i64 %3, ptr %9, align 8, !tbaa !3
  call void @llvm.lifetime.start.p0(i64 8, ptr %10) #7
  %15 = load i64, ptr %7, align 8, !tbaa !3
  %16 = mul i64 %15, 8
  store i64 %16, ptr %10, align 8, !tbaa !3
  call void @llvm.lifetime.start.p0(i64 8, ptr %11) #7
  %17 = load i64, ptr %10, align 8, !tbaa !3
  %18 = load i64, ptr %9, align 8, !tbaa !3
  %19 = icmp ult i64 %17, %18
  br i1 %19, label %20, label %22

20:                                               ; preds = %4
  %21 = load i64, ptr %10, align 8, !tbaa !3
  store i64 %21, ptr %11, align 8, !tbaa !3
  br label %50

22:                                               ; preds = %4
  %23 = load i64, ptr %9, align 8, !tbaa !3
  store i64 %23, ptr %11, align 8, !tbaa !3
  call void @llvm.lifetime.start.p0(i64 8, ptr %12) #7
  %24 = load i64, ptr %11, align 8, !tbaa !3
  store i64 %24, ptr %12, align 8, !tbaa !3
  br label %25

25:                                               ; preds = %44, %22
  %26 = load i64, ptr %12, align 8, !tbaa !3
  %27 = load i64, ptr %10, align 8, !tbaa !3
  %28 = icmp ult i64 %26, %27
  br i1 %28, label %30, label %29

29:                                               ; preds = %25
  store i32 2, ptr %13, align 4
  br label %47

30:                                               ; preds = %25
  %31 = load ptr, ptr %6, align 8, !tbaa !7
  %32 = load i64, ptr %12, align 8, !tbaa !3
  %33 = udiv i64 %32, 8
  %34 = getelementptr inbounds nuw i64, ptr %31, i64 %33
  %35 = load i64, ptr %34, align 8, !tbaa !3
  %36 = load i64, ptr %12, align 8, !tbaa !3
  %37 = urem i64 %36, 8
  %38 = mul i64 %37, 8
  %39 = lshr i64 %35, %38
  %40 = and i64 %39, 255
  %41 = icmp ne i64 %40, 0
  br i1 %41, label %42, label %43

42:                                               ; preds = %30
  store i32 -8, ptr %5, align 4
  store i32 1, ptr %13, align 4
  br label %47

43:                                               ; preds = %30
  br label %44

44:                                               ; preds = %43
  %45 = load i64, ptr %12, align 8, !tbaa !3
  %46 = add i64 %45, 1
  store i64 %46, ptr %12, align 8, !tbaa !3
  br label %25, !llvm.loop !26

47:                                               ; preds = %42, %29
  call void @llvm.lifetime.end.p0(i64 8, ptr %12) #7
  %48 = load i32, ptr %13, align 4
  switch i32 %48, label %86 [
    i32 2, label %49
  ]

49:                                               ; preds = %47
  br label %50

50:                                               ; preds = %49, %20
  call void @llvm.lifetime.start.p0(i64 8, ptr %14) #7
  store i64 0, ptr %14, align 8, !tbaa !3
  br label %51

51:                                               ; preds = %71, %50
  %52 = load i64, ptr %14, align 8, !tbaa !3
  %53 = load i64, ptr %11, align 8, !tbaa !3
  %54 = icmp ult i64 %52, %53
  br i1 %54, label %56, label %55

55:                                               ; preds = %51
  store i32 5, ptr %13, align 4
  call void @llvm.lifetime.end.p0(i64 8, ptr %14) #7
  br label %74

56:                                               ; preds = %51
  %57 = load ptr, ptr %6, align 8, !tbaa !7
  %58 = load i64, ptr %14, align 8, !tbaa !3
  %59 = udiv i64 %58, 8
  %60 = getelementptr inbounds nuw i64, ptr %57, i64 %59
  %61 = load i64, ptr %60, align 8, !tbaa !3
  %62 = load i64, ptr %14, align 8, !tbaa !3
  %63 = urem i64 %62, 8
  %64 = mul i64 %63, 8
  %65 = lshr i64 %61, %64
  %66 = and i64 %65, 255
  %67 = trunc i64 %66 to i8
  %68 = load ptr, ptr %8, align 8, !tbaa !22
  %69 = load i64, ptr %14, align 8, !tbaa !3
  %70 = getelementptr inbounds nuw i8, ptr %68, i64 %69
  store i8 %67, ptr %70, align 1, !tbaa !24
  br label %71

71:                                               ; preds = %56
  %72 = load i64, ptr %14, align 8, !tbaa !3
  %73 = add i64 %72, 1
  store i64 %73, ptr %14, align 8, !tbaa !3
  br label %51, !llvm.loop !27

74:                                               ; preds = %55
  %75 = load i64, ptr %10, align 8, !tbaa !3
  %76 = load i64, ptr %9, align 8, !tbaa !3
  %77 = icmp ult i64 %75, %76
  br i1 %77, label %78, label %85

78:                                               ; preds = %74
  %79 = load ptr, ptr %8, align 8, !tbaa !22
  %80 = load i64, ptr %10, align 8, !tbaa !3
  %81 = getelementptr inbounds nuw i8, ptr %79, i64 %80
  %82 = load i64, ptr %9, align 8, !tbaa !3
  %83 = load i64, ptr %10, align 8, !tbaa !3
  %84 = sub i64 %82, %83
  call void @llvm.memset.p0.i64(ptr align 1 %81, i8 0, i64 %84, i1 false)
  br label %85

85:                                               ; preds = %78, %74
  store i32 0, ptr %5, align 4
  store i32 1, ptr %13, align 4
  br label %86

86:                                               ; preds = %85, %47
  call void @llvm.lifetime.end.p0(i64 8, ptr %11) #7
  call void @llvm.lifetime.end.p0(i64 8, ptr %10) #7
  %87 = load i32, ptr %5, align 4
  ret i32 %87
}