; Function Attrs: nofree norecurse nosync nounwind memory(argmem: readwrite) uwtable
define hidden range(i32 -8, 1) i32 @mbedtls_mpi_core_write_le(ptr noundef readonly captures(none) %0, i64 noundef %1, ptr noundef writeonly captures(none) %2, i64 noundef %3) local_unnamed_addr #4 {
  %5 = shl i64 %1, 3
  %6 = icmp ult i64 %5, %3
  br i1 %6, label %.critedge, label %.preheader

.preheader:                                       ; preds = %4
  %.not3536 = icmp ult i64 %3, %5
  br i1 %.not3536, label %.lr.ph, label %.critedge

7:                                                ; preds = %.lr.ph
  %8 = add i64 %.02837, 1
  %exitcond.not = icmp eq i64 %8, %5
  br i1 %exitcond.not, label %.critedge, label %.lr.ph, !llvm.loop !20

.lr.ph:                                           ; preds = %.preheader, %7
  %.02837 = phi i64 [ %8, %7 ], [ %3, %.preheader ]
  %9 = lshr i64 %.02837, 3
  %10 = getelementptr inbounds nuw i64, ptr %0, i64 %9
  %11 = load i64, ptr %10, align 8, !tbaa !3
  %12 = shl i64 %.02837, 3
  %13 = and i64 %12, 56
  %14 = shl nuw i64 255, %13
  %15 = and i64 %11, %14
  %.not = icmp eq i64 %15, 0
  br i1 %.not, label %7, label %.loopexit

.critedge:                                        ; preds = %7, %.preheader, %4
  %.029 = phi i64 [ %5, %4 ], [ %3, %.preheader ], [ %3, %7 ]
  %.not40 = icmp eq i64 %.029, 0
  br i1 %.not40, label %._crit_edge, label %.lr.ph39

._crit_edge:                                      ; preds = %.lr.ph39, %.critedge
  br i1 %6, label %25, label %.loopexit

.lr.ph39:                                         ; preds = %.critedge, %.lr.ph39
  %.038 = phi i64 [ %24, %.lr.ph39 ], [ 0, %.critedge ]
  %16 = lshr i64 %.038, 3
  %17 = getelementptr inbounds nuw i64, ptr %0, i64 %16
  %18 = load i64, ptr %17, align 8, !tbaa !3
  %19 = shl i64 %.038, 3
  %20 = and i64 %19, 56
  %21 = lshr i64 %18, %20
  %22 = trunc i64 %21 to i8
  %23 = getelementptr inbounds nuw i8, ptr %2, i64 %.038
  store i8 %22, ptr %23, align 1, !tbaa !18
  %24 = add nuw i64 %.038, 1
  %exitcond41.not = icmp eq i64 %24, %.029
  br i1 %exitcond41.not, label %._crit_edge, label %.lr.ph39, !llvm.loop !21

25:                                               ; preds = %._crit_edge
  %26 = getelementptr inbounds nuw i8, ptr %2, i64 %5
  %27 = sub nuw i64 %3, %5
  tail call void @llvm.memset.p0.i64(ptr align 1 %26, i8 0, i64 %27, i1 false)
  br label %.loopexit

.loopexit:                                        ; preds = %.lr.ph, %._crit_edge, %25
  %.1 = phi i32 [ 0, %25 ], [ 0, %._crit_edge ], [ -8, %.lr.ph ]
  ret i32 %.1
}